target datalayout = "e-m:e-p270:32:32-p271:32:32-p272:64:64-i64:64-i128:128-f80:128-n8:16:32:64-S128"
target triple = "x86_64-pc-linux-gnu"

%struct.URLContext = type { ptr, ptr, ptr, ptr, i32, i32, i32, i32, %struct.AVIOInterruptCB, i64, ptr, ptr, i32 }
%struct.AVIOInterruptCB = type { ptr, ptr }
%struct.MMSHContext = type { %struct.MMSContext, [1024 x i8], i32, i32 }
%struct.MMSContext = type { ptr, ptr, ptr, [512 x i8], [65536 x i8], ptr, i32, ptr, i32, i32, i32, i32, i32, i32 }

@.str.26 = private unnamed_addr constant [15 x i8] c"Stream ended!\0A\00", align 1
@.str.27 = private unnamed_addr constant [43 x i8] c"Stream changed! Failed to get new header!\0A\00", align 1
@.str.28 = private unnamed_addr constant [27 x i8] c"Recv other type packet %d\0A\00", align 1

; Function Attrs: nounwind uwtable
define internal i32 @handle_chunk_type(ptr noundef %0) #0 {
  %2 = alloca i32, align 4
  %3 = alloca ptr, align 8
  %4 = alloca ptr, align 8
  %5 = alloca i32, align 4
  %6 = alloca i32, align 4
  %7 = alloca i32, align 4
  %8 = alloca i32, align 4
  store ptr %0, ptr %3, align 8, !tbaa !19
  call void @llvm.lifetime.start.p0(i64 8, ptr %4) #5
  %9 = load ptr, ptr %3, align 8, !tbaa !19
  %10 = getelementptr inbounds nuw %struct.MMSHContext, ptr %9, i32 0, i32 0
  store ptr %10, ptr %4, align 8, !tbaa !21
  call void @llvm.lifetime.start.p0(i64 4, ptr %5) #5
  call void @llvm.lifetime.start.p0(i64 4, ptr %6) #5
  store i32 0, ptr %6, align 4, !tbaa !11
  call void @llvm.lifetime.start.p0(i64 4, ptr %7) #5
  %11 = load ptr, ptr %3, align 8, !tbaa !19
  %12 = call i32 @get_chunk_header(ptr noundef %11, ptr noundef %6)
  store i32 %12, ptr %7, align 4, !tbaa !11
  %13 = load i32, ptr %7, align 4, !tbaa !11
  switch i32 %13, label %30 [
    i32 17700, label %14
    i32 17188, label %17
    i32 17444, label %26
  ]

14:                                               ; preds = %1
  %15 = load ptr, ptr %3, align 8, !tbaa !19
  %16 = getelementptr inbounds nuw %struct.MMSHContext, ptr %15, i32 0, i32 3
  store i32 0, ptr %16, align 4, !tbaa !31
  call void (ptr, i32, ptr, ...) @av_log(ptr noundef null, i32 noundef 16, ptr noundef @.str.26)
  store i32 -5, ptr %2, align 4
  store i32 1, ptr %8, align 4
  br label %33

17:                                               ; preds = %1
  %18 = load ptr, ptr %4, align 8, !tbaa !21
  %19 = getelementptr inbounds nuw %struct.MMSContext, ptr %18, i32 0, i32 9
  store i32 0, ptr %19, align 4, !tbaa !46
  %20 = load ptr, ptr %3, align 8, !tbaa !19
  %21 = call i32 @get_http_header_data(ptr noundef %20)
  store i32 %21, ptr %5, align 4, !tbaa !11
  %22 = icmp ne i32 %21, 0
  br i1 %22, label %23, label %25

23:                                               ; preds = %17
  call void (ptr, i32, ptr, ...) @av_log(ptr noundef null, i32 noundef 16, ptr noundef @.str.27)
  %24 = load i32, ptr %5, align 4, !tbaa !11
  store i32 %24, ptr %2, align 4
  store i32 1, ptr %8, align 4
  br label %33

25:                                               ; preds = %17
  br label %32

26:                                               ; preds = %1
  %27 = load ptr, ptr %3, align 8, !tbaa !19
  %28 = load i32, ptr %6, align 4, !tbaa !11
  %29 = call i32 @read_data_packet(ptr noundef %27, i32 noundef %28)
  store i32 %29, ptr %2, align 4
  store i32 1, ptr %8, align 4
  br label %33

30:                                               ; preds = %1
  %31 = load i32, ptr %7, align 4, !tbaa !11
  call void (ptr, i32, ptr, ...) @av_log(ptr noundef null, i32 noundef 16, ptr noundef @.str.28, i32 noundef %31)
  store i32 -1094995529, ptr %2, align 4
  store i32 1, ptr %8, align 4
  br label %33

32:                                               ; preds = %25
  store i32 0, ptr %2, align 4
  store i32 1, ptr %8, align 4
  br label %33

33:                                               ; preds = %32, %30, %26, %23, %14
  call void @llvm.lifetime.end.p0(i64 4, ptr %7) #5
  call void @llvm.lifetime.end.p0(i64 4, ptr %6) #5
  call void @llvm.lifetime.end.p0(i64 4, ptr %5) #5
  call void @llvm.lifetime.end.p0(i64 8, ptr %4) #5
  %34 = load i32, ptr %2, align 4
  ret i32 %34
}

; Function Attrs: nounwind uwtable
define internal i32 @mmsh_read(ptr noundef %0, ptr noundef %1, i32 noundef %2) #0 {
  %4 = alloca i32, align 4
  %5 = alloca ptr, align 8
  %6 = alloca ptr, align 8
  %7 = alloca i32, align 4
  %8 = alloca i32, align 4
  %9 = alloca ptr, align 8
  %10 = alloca ptr, align 8
  %11 = alloca i32, align 4
  store ptr %0, ptr %5, align 8, !tbaa !4
  store ptr %1, ptr %6, align 8, !tbaa !9
  store i32 %2, ptr %7, align 4, !tbaa !11
  call void @llvm.lifetime.start.p0(i64 4, ptr %8) #5
  store i32 0, ptr %8, align 4, !tbaa !11
  call void @llvm.lifetime.start.p0(i64 8, ptr %9) #5
  %12 = load ptr, ptr %5, align 8, !tbaa !4
  %13 = getelementptr inbounds nuw %struct.URLContext, ptr %12, i32 0, i32 2
  %14 = load ptr, ptr %13, align 8, !tbaa !13
  store ptr %14, ptr %9, align 8, !tbaa !19
  call void @llvm.lifetime.start.p0(i64 8, ptr %10) #5
  %15 = load ptr, ptr %9, align 8, !tbaa !19
  %16 = getelementptr inbounds nuw %struct.MMSHContext, ptr %15, i32 0, i32 0
  store ptr %16, ptr %10, align 8, !tbaa !21
  br label %17

17:                                               ; preds = %47, %3
  %18 = load ptr, ptr %10, align 8, !tbaa !21
  %19 = getelementptr inbounds nuw %struct.MMSContext, ptr %18, i32 0, i32 11
  %20 = load i32, ptr %19, align 4, !tbaa !23
  %21 = load ptr, ptr %10, align 8, !tbaa !21
  %22 = getelementptr inbounds nuw %struct.MMSContext, ptr %21, i32 0, i32 8
  %23 = load i32, ptr %22, align 8, !tbaa !26
  %24 = icmp slt i32 %20, %23
  br i1 %24, label %25, label %30

25:                                               ; preds = %17
  %26 = load ptr, ptr %10, align 8, !tbaa !21
  %27 = load ptr, ptr %6, align 8, !tbaa !9
  %28 = load i32, ptr %7, align 4, !tbaa !11
  %29 = call i32 @ff_mms_read_header(ptr noundef %26, ptr noundef %27, i32 noundef %28)
  store i32 %29, ptr %8, align 4, !tbaa !11
  br label %46

30:                                               ; preds = %17
  %31 = load ptr, ptr %10, align 8, !tbaa !21
  %32 = getelementptr inbounds nuw %struct.MMSContext, ptr %31, i32 0, i32 6
  %33 = load i32, ptr %32, align 8, !tbaa !27
  %34 = icmp ne i32 %33, 0
  br i1 %34, label %41, label %35

35:                                               ; preds = %30
  %36 = load ptr, ptr %9, align 8, !tbaa !19
  %37 = call i32 @handle_chunk_type(ptr noundef %36)
  store i32 %37, ptr %8, align 4, !tbaa !11
  %38 = icmp ne i32 %37, 0
  br i1 %38, label %39, label %41

39:                                               ; preds = %35
  %40 = load i32, ptr %8, align 4, !tbaa !11
  store i32 %40, ptr %4, align 4
  store i32 1, ptr %11, align 4
  br label %53

41:                                               ; preds = %35, %30
  %42 = load ptr, ptr %10, align 8, !tbaa !21
  %43 = load ptr, ptr %6, align 8, !tbaa !9
  %44 = load i32, ptr %7, align 4, !tbaa !11
  %45 = call i32 @ff_mms_read_data(ptr noundef %42, ptr noundef %43, i32 noundef %44)
  store i32 %45, ptr %8, align 4, !tbaa !11
  br label %46

46:                                               ; preds = %41, %25
  br label %47

47:                                               ; preds = %46
  %48 = load i32, ptr %8, align 4, !tbaa !11
  %49 = icmp ne i32 %48, 0
  %50 = xor i1 %49, true
  br i1 %50, label %17, label %51, !llvm.loop !28

51:                                               ; preds = %47
  %52 = load i32, ptr %8, align 4, !tbaa !11
  store i32 %52, ptr %4, align 4
  store i32 1, ptr %11, align 4
  br label %53

53:                                               ; preds = %51, %39
  call void @llvm.lifetime.end.p0(i64 8, ptr %10) #5
  call void @llvm.lifetime.end.p0(i64 8, ptr %9) #5
  call void @llvm.lifetime.end.p0(i64 4, ptr %8) #5
  %54 = load i32, ptr %4, align 4
  ret i32 %54
}