; Function Attrs: nounwind uwtable
define internal range(i32 1, 0) i32 @mmsh_read(ptr noundef readonly captures(none) %0, ptr noundef %1, i32 noundef %2) #0 {
  %4 = alloca i32, align 4
  %5 = getelementptr inbounds nuw i8, ptr %0, i64 16
  %6 = load ptr, ptr %5, align 8, !tbaa !4
  %7 = getelementptr inbounds nuw i8, ptr %6, i64 66108
  %8 = getelementptr inbounds nuw i8, ptr %6, i64 66096
  %9 = getelementptr inbounds nuw i8, ptr %6, i64 66080
  %10 = getelementptr inbounds nuw i8, ptr %6, i64 66100
  br label %11

11:                                               ; preds = %31, %3
  %12 = load i32, ptr %7, align 4, !tbaa !15
  %13 = load i32, ptr %8, align 8, !tbaa !19
  %14 = icmp slt i32 %12, %13
  br i1 %14, label %15, label %17

15:                                               ; preds = %11
  %16 = tail call i32 @ff_mms_read_header(ptr noundef nonnull %6, ptr noundef %1, i32 noundef %2) #7
  br label %31

17:                                               ; preds = %11
  %18 = load i32, ptr %9, align 8, !tbaa !20
  %.not = icmp eq i32 %18, 0
  br i1 %.not, label %19, label %29

19:                                               ; preds = %17
  call void @llvm.lifetime.start.p0(i64 4, ptr nonnull %4) #7
  store i32 0, ptr %4, align 4, !tbaa !21
  %20 = call fastcc i32 @get_chunk_header(ptr noundef nonnull %6, ptr noundef %4)
  switch i32 %20, label %26 [
    i32 17700, label %21
    i32 17188, label %23
    i32 17444, label %handle_chunk_type.exit
  ]

21:                                               ; preds = %19
  %22 = getelementptr inbounds nuw i8, ptr %6, i64 67148
  store i32 0, ptr %22, align 4, !tbaa !22
  tail call void (ptr, i32, ptr, ...) @av_log(ptr noundef null, i32 noundef 16, ptr noundef nonnull @.str.26) #7
  br label %handle_chunk_type.exit.thread

23:                                               ; preds = %19
  store i32 0, ptr %10, align 4, !tbaa !24
  %24 = tail call fastcc i32 @get_http_header_data(ptr noundef nonnull %6)
  %.not.i = icmp eq i32 %24, 0
  br i1 %.not.i, label %handle_chunk_type.exit.thread21, label %25

handle_chunk_type.exit.thread21:                  ; preds = %23
  call void @llvm.lifetime.end.p0(i64 4, ptr nonnull %4) #7
  br label %29

25:                                               ; preds = %23
  tail call void (ptr, i32, ptr, ...) @av_log(ptr noundef null, i32 noundef 16, ptr noundef nonnull @.str.27) #7
  br label %handle_chunk_type.exit.thread

26:                                               ; preds = %19
  tail call void (ptr, i32, ptr, ...) @av_log(ptr noundef null, i32 noundef 16, ptr noundef nonnull @.str.28, i32 noundef %20) #7
  br label %handle_chunk_type.exit.thread

handle_chunk_type.exit.thread:                    ; preds = %26, %25, %21
  %.0.i.ph = phi i32 [ -5, %21 ], [ %24, %25 ], [ -1094995529, %26 ]
  call void @llvm.lifetime.end.p0(i64 4, ptr nonnull %4) #7
  br label %.loopexit

handle_chunk_type.exit:                           ; preds = %19
  %27 = load i32, ptr %4, align 4, !tbaa !21
  %28 = tail call fastcc i32 @read_data_packet(ptr noundef nonnull %6, i32 noundef %27)
  call void @llvm.lifetime.end.p0(i64 4, ptr nonnull %4) #7
  %.not17 = icmp eq i32 %28, 0
  br i1 %.not17, label %29, label %.loopexit

29:                                               ; preds = %handle_chunk_type.exit.thread21, %handle_chunk_type.exit, %17
  %30 = tail call i32 @ff_mms_read_data(ptr noundef nonnull %6, ptr noundef %1, i32 noundef %2) #7
  br label %31

31:                                               ; preds = %15, %29
  %.015 = phi i32 [ %16, %15 ], [ %30, %29 ]
  %.not18 = icmp eq i32 %.015, 0
  br i1 %.not18, label %11, label %.loopexit, !llvm.loop !25

.loopexit:                                        ; preds = %31, %handle_chunk_type.exit, %handle_chunk_type.exit.thread
  %.0 = phi i32 [ %.0.i.ph, %handle_chunk_type.exit.thread ], [ %.015, %31 ], [ %28, %handle_chunk_type.exit ]
  ret i32 %.0
}